
c1m2.out:     file format elf64-x86-64


Disassembly of section .init:

0000000000001000 <_init>:
    1000:	f3 0f 1e fa          	endbr64
    1004:	48 83 ec 08          	sub    $0x8,%rsp
    1008:	48 8b 05 d9 2f 00 00 	mov    0x2fd9(%rip),%rax        # 3fe8 <__gmon_start__@Base>
    100f:	48 85 c0             	test   %rax,%rax
    1012:	74 02                	je     1016 <_init+0x16>
    1014:	ff d0                	call   *%rax
    1016:	48 83 c4 08          	add    $0x8,%rsp
    101a:	c3                   	ret

Disassembly of section .plt:

0000000000001020 <.plt>:
    1020:	ff 35 82 2f 00 00    	push   0x2f82(%rip)        # 3fa8 <_GLOBAL_OFFSET_TABLE_+0x8>
    1026:	ff 25 84 2f 00 00    	jmp    *0x2f84(%rip)        # 3fb0 <_GLOBAL_OFFSET_TABLE_+0x10>
    102c:	0f 1f 40 00          	nopl   0x0(%rax)
    1030:	f3 0f 1e fa          	endbr64
    1034:	68 00 00 00 00       	push   $0x0
    1039:	e9 e2 ff ff ff       	jmp    1020 <_init+0x20>
    103e:	66 90                	xchg   %ax,%ax
    1040:	f3 0f 1e fa          	endbr64
    1044:	68 01 00 00 00       	push   $0x1
    1049:	e9 d2 ff ff ff       	jmp    1020 <_init+0x20>
    104e:	66 90                	xchg   %ax,%ax
    1050:	f3 0f 1e fa          	endbr64
    1054:	68 02 00 00 00       	push   $0x2
    1059:	e9 c2 ff ff ff       	jmp    1020 <_init+0x20>
    105e:	66 90                	xchg   %ax,%ax
    1060:	f3 0f 1e fa          	endbr64
    1064:	68 03 00 00 00       	push   $0x3
    1069:	e9 b2 ff ff ff       	jmp    1020 <_init+0x20>
    106e:	66 90                	xchg   %ax,%ax

Disassembly of section .plt.got:

0000000000001070 <__cxa_finalize@plt>:
    1070:	f3 0f 1e fa          	endbr64
    1074:	ff 25 7e 2f 00 00    	jmp    *0x2f7e(%rip)        # 3ff8 <__cxa_finalize@GLIBC_2.2.5>
    107a:	66 0f 1f 44 00 00    	nopw   0x0(%rax,%rax,1)

Disassembly of section .plt.sec:

0000000000001080 <putchar@plt>:
    1080:	f3 0f 1e fa          	endbr64
    1084:	ff 25 2e 2f 00 00    	jmp    *0x2f2e(%rip)        # 3fb8 <putchar@GLIBC_2.2.5>
    108a:	66 0f 1f 44 00 00    	nopw   0x0(%rax,%rax,1)

0000000000001090 <puts@plt>:
    1090:	f3 0f 1e fa          	endbr64
    1094:	ff 25 26 2f 00 00    	jmp    *0x2f26(%rip)        # 3fc0 <puts@GLIBC_2.2.5>
    109a:	66 0f 1f 44 00 00    	nopw   0x0(%rax,%rax,1)

00000000000010a0 <__stack_chk_fail@plt>:
    10a0:	f3 0f 1e fa          	endbr64
    10a4:	ff 25 1e 2f 00 00    	jmp    *0x2f1e(%rip)        # 3fc8 <__stack_chk_fail@GLIBC_2.4>
    10aa:	66 0f 1f 44 00 00    	nopw   0x0(%rax,%rax,1)

00000000000010b0 <printf@plt>:
    10b0:	f3 0f 1e fa          	endbr64
    10b4:	ff 25 16 2f 00 00    	jmp    *0x2f16(%rip)        # 3fd0 <printf@GLIBC_2.2.5>
    10ba:	66 0f 1f 44 00 00    	nopw   0x0(%rax,%rax,1)

Disassembly of section .text:

00000000000010c0 <_start>:
    10c0:	f3 0f 1e fa          	endbr64
    10c4:	31 ed                	xor    %ebp,%ebp
    10c6:	49 89 d1             	mov    %rdx,%r9
    10c9:	5e                   	pop    %rsi
    10ca:	48 89 e2             	mov    %rsp,%rdx
    10cd:	48 83 e4 f0          	and    $0xfffffffffffffff0,%rsp
    10d1:	50                   	push   %rax
    10d2:	54                   	push   %rsp
    10d3:	45 31 c0             	xor    %r8d,%r8d
    10d6:	31 c9                	xor    %ecx,%ecx
    10d8:	48 8d 3d ca 00 00 00 	lea    0xca(%rip),%rdi        # 11a9 <main>
    10df:	ff 15 f3 2e 00 00    	call   *0x2ef3(%rip)        # 3fd8 <__libc_start_main@GLIBC_2.34>
    10e5:	f4                   	hlt
    10e6:	66 2e 0f 1f 84 00 00 	cs nopw 0x0(%rax,%rax,1)
    10ed:	00 00 00 

00000000000010f0 <deregister_tm_clones>:
    10f0:	48 8d 3d 19 2f 00 00 	lea    0x2f19(%rip),%rdi        # 4010 <__TMC_END__>
    10f7:	48 8d 05 12 2f 00 00 	lea    0x2f12(%rip),%rax        # 4010 <__TMC_END__>
    10fe:	48 39 f8             	cmp    %rdi,%rax
    1101:	74 15                	je     1118 <deregister_tm_clones+0x28>
    1103:	48 8b 05 d6 2e 00 00 	mov    0x2ed6(%rip),%rax        # 3fe0 <_ITM_deregisterTMCloneTable@Base>
    110a:	48 85 c0             	test   %rax,%rax
    110d:	74 09                	je     1118 <deregister_tm_clones+0x28>
    110f:	ff e0                	jmp    *%rax
    1111:	0f 1f 80 00 00 00 00 	nopl   0x0(%rax)
    1118:	c3                   	ret
    1119:	0f 1f 80 00 00 00 00 	nopl   0x0(%rax)

0000000000001120 <register_tm_clones>:
    1120:	48 8d 3d e9 2e 00 00 	lea    0x2ee9(%rip),%rdi        # 4010 <__TMC_END__>
    1127:	48 8d 35 e2 2e 00 00 	lea    0x2ee2(%rip),%rsi        # 4010 <__TMC_END__>
    112e:	48 29 fe             	sub    %rdi,%rsi
    1131:	48 89 f0             	mov    %rsi,%rax
    1134:	48 c1 ee 3f          	shr    $0x3f,%rsi
    1138:	48 c1 f8 03          	sar    $0x3,%rax
    113c:	48 01 c6             	add    %rax,%rsi
    113f:	48 d1 fe             	sar    $1,%rsi
    1142:	74 14                	je     1158 <register_tm_clones+0x38>
    1144:	48 8b 05 a5 2e 00 00 	mov    0x2ea5(%rip),%rax        # 3ff0 <_ITM_registerTMCloneTable@Base>
    114b:	48 85 c0             	test   %rax,%rax
    114e:	74 08                	je     1158 <register_tm_clones+0x38>
    1150:	ff e0                	jmp    *%rax
    1152:	66 0f 1f 44 00 00    	nopw   0x0(%rax,%rax,1)
    1158:	c3                   	ret
    1159:	0f 1f 80 00 00 00 00 	nopl   0x0(%rax)

0000000000001160 <__do_global_dtors_aux>:
    1160:	f3 0f 1e fa          	endbr64
    1164:	80 3d a5 2e 00 00 00 	cmpb   $0x0,0x2ea5(%rip)        # 4010 <__TMC_END__>
    116b:	75 2b                	jne    1198 <__do_global_dtors_aux+0x38>
    116d:	55                   	push   %rbp
    116e:	48 83 3d 82 2e 00 00 	cmpq   $0x0,0x2e82(%rip)        # 3ff8 <__cxa_finalize@GLIBC_2.2.5>
    1175:	00 
    1176:	48 89 e5             	mov    %rsp,%rbp
    1179:	74 0c                	je     1187 <__do_global_dtors_aux+0x27>
    117b:	48 8b 3d 86 2e 00 00 	mov    0x2e86(%rip),%rdi        # 4008 <__dso_handle>
    1182:	e8 e9 fe ff ff       	call   1070 <__cxa_finalize@plt>
    1187:	e8 64 ff ff ff       	call   10f0 <deregister_tm_clones>
    118c:	c6 05 7d 2e 00 00 01 	movb   $0x1,0x2e7d(%rip)        # 4010 <__TMC_END__>
    1193:	5d                   	pop    %rbp
    1194:	c3                   	ret
    1195:	0f 1f 00             	nopl   (%rax)
    1198:	c3                   	ret
    1199:	0f 1f 80 00 00 00 00 	nopl   0x0(%rax)

00000000000011a0 <frame_dummy>:
    11a0:	f3 0f 1e fa          	endbr64
    11a4:	e9 77 ff ff ff       	jmp    1120 <register_tm_clones>

00000000000011a9 <main>:
    11a9:	f3 0f 1e fa          	endbr64
    11ad:	55                   	push   %rbp
    11ae:	48 89 e5             	mov    %rsp,%rbp
    11b1:	48 83 ec 50          	sub    $0x50,%rsp
    11b5:	64 48 8b 04 25 28 00 	mov    %fs:0x28,%rax
    11bc:	00 00 
    11be:	48 89 45 f8          	mov    %rax,-0x8(%rbp)
    11c2:	31 c0                	xor    %eax,%eax
    11c4:	48 b8 22 c9 be 9a 08 	movabs $0x602c2089abec922,%rax
    11cb:	c2 02 06 
    11ce:	48 ba 72 58 2d 4c 7b 	movabs $0x1719577b4c2d5872,%rdx
    11d5:	57 19 17 
    11d8:	48 89 45 d0          	mov    %rax,-0x30(%rbp)
    11dc:	48 89 55 d8          	mov    %rdx,-0x28(%rbp)
    11e0:	48 b8 c8 7a 96 5a 5c 	movabs $0xf4b1575c5a967ac8,%rax
    11e7:	57 b1 f4 
    11ea:	48 ba c9 06 0c 3c 08 	movabs $0x430502083c0c06c9,%rdx
    11f1:	02 05 43 
    11f4:	48 89 45 e0          	mov    %rax,-0x20(%rbp)
    11f8:	48 89 55 e8          	mov    %rdx,-0x18(%rbp)
    11fc:	48 b8 07 57 fa e6 63 	movabs $0x5a640363e6fa5707,%rax
    1203:	03 64 5a 
    1206:	48 89 45 f0          	mov    %rax,-0x10(%rbp)
    120a:	c7 45 bc 28 00 00 00 	movl   $0x28,-0x44(%rbp)
    1211:	48 8d 05 ec 0d 00 00 	lea    0xdec(%rip),%rax        # 2004 <_IO_stdin_used+0x4>
    1218:	48 89 c7             	mov    %rax,%rdi
    121b:	e8 70 fe ff ff       	call   1090 <puts@plt>
    1220:	8b 55 bc             	mov    -0x44(%rbp),%edx
    1223:	48 8d 45 d0          	lea    -0x30(%rbp),%rax
    1227:	89 d6                	mov    %edx,%esi
    1229:	48 89 c7             	mov    %rax,%rdi
    122c:	e8 ab 00 00 00       	call   12dc <print_array>
    1231:	8b 55 bc             	mov    -0x44(%rbp),%edx
    1234:	48 8d 45 d0          	lea    -0x30(%rbp),%rax
    1238:	89 d6                	mov    %edx,%esi
    123a:	48 89 c7             	mov    %rax,%rdi
    123d:	e8 f2 01 00 00       	call   1434 <find_min>
    1242:	89 45 c0             	mov    %eax,-0x40(%rbp)
    1245:	8b 55 bc             	mov    -0x44(%rbp),%edx
    1248:	48 8d 45 d0          	lea    -0x30(%rbp),%rax
    124c:	89 d6                	mov    %edx,%esi
    124e:	48 89 c7             	mov    %rax,%rdi
    1251:	e8 7a 01 00 00       	call   13d0 <find_max>
    1256:	89 45 c4             	mov    %eax,-0x3c(%rbp)
    1259:	8b 55 bc             	mov    -0x44(%rbp),%edx
    125c:	48 8d 45 d0          	lea    -0x30(%rbp),%rax
    1260:	89 d6                	mov    %edx,%esi
    1262:	48 89 c7             	mov    %rax,%rdi
    1265:	e8 2e 02 00 00       	call   1498 <find_mean>
    126a:	89 45 c8             	mov    %eax,-0x38(%rbp)
    126d:	8b 55 bc             	mov    -0x44(%rbp),%edx
    1270:	48 8d 45 d0          	lea    -0x30(%rbp),%rax
    1274:	89 d6                	mov    %edx,%esi
    1276:	48 89 c7             	mov    %rax,%rdi
    1279:	e8 68 02 00 00       	call   14e6 <find_median>
    127e:	89 45 cc             	mov    %eax,-0x34(%rbp)
    1281:	48 8d 05 92 0d 00 00 	lea    0xd92(%rip),%rax        # 201a <_IO_stdin_used+0x1a>
    1288:	48 89 c7             	mov    %rax,%rdi
    128b:	e8 00 fe ff ff       	call   1090 <puts@plt>
    1290:	8b 55 bc             	mov    -0x44(%rbp),%edx
    1293:	48 8d 45 d0          	lea    -0x30(%rbp),%rax
    1297:	89 d6                	mov    %edx,%esi
    1299:	48 89 c7             	mov    %rax,%rdi
    129c:	e8 3b 00 00 00       	call   12dc <print_array>
    12a1:	bf 0a 00 00 00       	mov    $0xa,%edi
    12a6:	e8 d5 fd ff ff       	call   1080 <putchar@plt>
    12ab:	8b 45 c0             	mov    -0x40(%rbp),%eax
    12ae:	0f b6 c0             	movzbl %al,%eax
    12b1:	8b 4d cc             	mov    -0x34(%rbp),%ecx
    12b4:	8b 55 c8             	mov    -0x38(%rbp),%edx
    12b7:	8b 75 c4             	mov    -0x3c(%rbp),%esi
    12ba:	89 c7                	mov    %eax,%edi
    12bc:	e8 8d 00 00 00       	call   134e <print_output>
    12c1:	b8 00 00 00 00       	mov    $0x0,%eax
    12c6:	48 8b 55 f8          	mov    -0x8(%rbp),%rdx
    12ca:	64 48 2b 14 25 28 00 	sub    %fs:0x28,%rdx
    12d1:	00 00 
    12d3:	74 05                	je     12da <main+0x131>
    12d5:	e8 c6 fd ff ff       	call   10a0 <__stack_chk_fail@plt>
    12da:	c9                   	leave
    12db:	c3                   	ret

00000000000012dc <print_array>:
    12dc:	f3 0f 1e fa          	endbr64
    12e0:	55                   	push   %rbp
    12e1:	48 89 e5             	mov    %rsp,%rbp
    12e4:	48 83 ec 20          	sub    $0x20,%rsp
    12e8:	48 89 7d e8          	mov    %rdi,-0x18(%rbp)
    12ec:	89 75 e4             	mov    %esi,-0x1c(%rbp)
    12ef:	c7 45 fc 00 00 00 00 	movl   $0x0,-0x4(%rbp)
    12f6:	eb 41                	jmp    1339 <print_array+0x5d>
    12f8:	8b 45 fc             	mov    -0x4(%rbp),%eax
    12fb:	83 e0 07             	and    $0x7,%eax
    12fe:	85 c0                	test   %eax,%eax
    1300:	75 0a                	jne    130c <print_array+0x30>
    1302:	bf 0a 00 00 00       	mov    $0xa,%edi
    1307:	e8 74 fd ff ff       	call   1080 <putchar@plt>
    130c:	8b 45 fc             	mov    -0x4(%rbp),%eax
    130f:	48 63 d0             	movslq %eax,%rdx
    1312:	48 8b 45 e8          	mov    -0x18(%rbp),%rax
    1316:	48 01 d0             	add    %rdx,%rax
    1319:	0f b6 00             	movzbl (%rax),%eax
    131c:	0f b6 c0             	movzbl %al,%eax
    131f:	89 c6                	mov    %eax,%esi
    1321:	48 8d 05 08 0d 00 00 	lea    0xd08(%rip),%rax        # 2030 <_IO_stdin_used+0x30>
    1328:	48 89 c7             	mov    %rax,%rdi
    132b:	b8 00 00 00 00       	mov    $0x0,%eax
    1330:	e8 7b fd ff ff       	call   10b0 <printf@plt>
    1335:	83 45 fc 01          	addl   $0x1,-0x4(%rbp)
    1339:	8b 45 fc             	mov    -0x4(%rbp),%eax
    133c:	3b 45 e4             	cmp    -0x1c(%rbp),%eax
    133f:	72 b7                	jb     12f8 <print_array+0x1c>
    1341:	bf 0a 00 00 00       	mov    $0xa,%edi
    1346:	e8 35 fd ff ff       	call   1080 <putchar@plt>
    134b:	90                   	nop
    134c:	c9                   	leave
    134d:	c3                   	ret

000000000000134e <print_output>:
    134e:	f3 0f 1e fa          	endbr64
    1352:	55                   	push   %rbp
    1353:	48 89 e5             	mov    %rsp,%rbp
    1356:	48 83 ec 10          	sub    $0x10,%rsp
    135a:	89 f8                	mov    %edi,%eax
    135c:	89 75 f8             	mov    %esi,-0x8(%rbp)
    135f:	89 55 f4             	mov    %edx,-0xc(%rbp)
    1362:	89 4d f0             	mov    %ecx,-0x10(%rbp)
    1365:	88 45 fc             	mov    %al,-0x4(%rbp)
    1368:	0f b6 45 fc          	movzbl -0x4(%rbp),%eax
    136c:	89 c6                	mov    %eax,%esi
    136e:	48 8d 05 c0 0c 00 00 	lea    0xcc0(%rip),%rax        # 2035 <_IO_stdin_used+0x35>
    1375:	48 89 c7             	mov    %rax,%rdi
    1378:	b8 00 00 00 00       	mov    $0x0,%eax
    137d:	e8 2e fd ff ff       	call   10b0 <printf@plt>
    1382:	8b 45 f8             	mov    -0x8(%rbp),%eax
    1385:	89 c6                	mov    %eax,%esi
    1387:	48 8d 05 b5 0c 00 00 	lea    0xcb5(%rip),%rax        # 2043 <_IO_stdin_used+0x43>
    138e:	48 89 c7             	mov    %rax,%rdi
    1391:	b8 00 00 00 00       	mov    $0x0,%eax
    1396:	e8 15 fd ff ff       	call   10b0 <printf@plt>
    139b:	8b 45 f4             	mov    -0xc(%rbp),%eax
    139e:	89 c6                	mov    %eax,%esi
    13a0:	48 8d 05 aa 0c 00 00 	lea    0xcaa(%rip),%rax        # 2051 <_IO_stdin_used+0x51>
    13a7:	48 89 c7             	mov    %rax,%rdi
    13aa:	b8 00 00 00 00       	mov    $0x0,%eax
    13af:	e8 fc fc ff ff       	call   10b0 <printf@plt>
    13b4:	8b 45 f0             	mov    -0x10(%rbp),%eax
    13b7:	89 c6                	mov    %eax,%esi
    13b9:	48 8d 05 9f 0c 00 00 	lea    0xc9f(%rip),%rax        # 205f <_IO_stdin_used+0x5f>
    13c0:	48 89 c7             	mov    %rax,%rdi
    13c3:	b8 00 00 00 00       	mov    $0x0,%eax
    13c8:	e8 e3 fc ff ff       	call   10b0 <printf@plt>
    13cd:	90                   	nop
    13ce:	c9                   	leave
    13cf:	c3                   	ret

00000000000013d0 <find_max>:
    13d0:	f3 0f 1e fa          	endbr64
    13d4:	55                   	push   %rbp
    13d5:	48 89 e5             	mov    %rsp,%rbp
    13d8:	48 89 7d e8          	mov    %rdi,-0x18(%rbp)
    13dc:	89 75 e4             	mov    %esi,-0x1c(%rbp)
    13df:	48 8b 45 e8          	mov    -0x18(%rbp),%rax
    13e3:	0f b6 00             	movzbl (%rax),%eax
    13e6:	0f b6 c0             	movzbl %al,%eax
    13e9:	89 45 f8             	mov    %eax,-0x8(%rbp)
    13ec:	c7 45 fc 01 00 00 00 	movl   $0x1,-0x4(%rbp)
    13f3:	eb 32                	jmp    1427 <find_max+0x57>
    13f5:	8b 45 fc             	mov    -0x4(%rbp),%eax
    13f8:	48 63 d0             	movslq %eax,%rdx
    13fb:	48 8b 45 e8          	mov    -0x18(%rbp),%rax
    13ff:	48 01 d0             	add    %rdx,%rax
    1402:	0f b6 00             	movzbl (%rax),%eax
    1405:	0f b6 c0             	movzbl %al,%eax
    1408:	39 45 f8             	cmp    %eax,-0x8(%rbp)
    140b:	73 16                	jae    1423 <find_max+0x53>
    140d:	8b 45 fc             	mov    -0x4(%rbp),%eax
    1410:	48 63 d0             	movslq %eax,%rdx
    1413:	48 8b 45 e8          	mov    -0x18(%rbp),%rax
    1417:	48 01 d0             	add    %rdx,%rax
    141a:	0f b6 00             	movzbl (%rax),%eax
    141d:	0f b6 c0             	movzbl %al,%eax
    1420:	89 45 f8             	mov    %eax,-0x8(%rbp)
    1423:	83 45 fc 01          	addl   $0x1,-0x4(%rbp)
    1427:	8b 45 fc             	mov    -0x4(%rbp),%eax
    142a:	3b 45 e4             	cmp    -0x1c(%rbp),%eax
    142d:	72 c6                	jb     13f5 <find_max+0x25>
    142f:	8b 45 f8             	mov    -0x8(%rbp),%eax
    1432:	5d                   	pop    %rbp
    1433:	c3                   	ret

0000000000001434 <find_min>:
    1434:	f3 0f 1e fa          	endbr64
    1438:	55                   	push   %rbp
    1439:	48 89 e5             	mov    %rsp,%rbp
    143c:	48 89 7d e8          	mov    %rdi,-0x18(%rbp)
    1440:	89 75 e4             	mov    %esi,-0x1c(%rbp)
    1443:	48 8b 45 e8          	mov    -0x18(%rbp),%rax
    1447:	0f b6 00             	movzbl (%rax),%eax
    144a:	0f b6 c0             	movzbl %al,%eax
    144d:	89 45 f8             	mov    %eax,-0x8(%rbp)
    1450:	c7 45 fc 01 00 00 00 	movl   $0x1,-0x4(%rbp)
    1457:	eb 32                	jmp    148b <find_min+0x57>
    1459:	8b 45 fc             	mov    -0x4(%rbp),%eax
    145c:	48 63 d0             	movslq %eax,%rdx
    145f:	48 8b 45 e8          	mov    -0x18(%rbp),%rax
    1463:	48 01 d0             	add    %rdx,%rax
    1466:	0f b6 00             	movzbl (%rax),%eax
    1469:	0f b6 c0             	movzbl %al,%eax
    146c:	3b 45 f8             	cmp    -0x8(%rbp),%eax
    146f:	73 16                	jae    1487 <find_min+0x53>
    1471:	8b 45 fc             	mov    -0x4(%rbp),%eax
    1474:	48 63 d0             	movslq %eax,%rdx
    1477:	48 8b 45 e8          	mov    -0x18(%rbp),%rax
    147b:	48 01 d0             	add    %rdx,%rax
    147e:	0f b6 00             	movzbl (%rax),%eax
    1481:	0f b6 c0             	movzbl %al,%eax
    1484:	89 45 f8             	mov    %eax,-0x8(%rbp)
    1487:	83 45 fc 01          	addl   $0x1,-0x4(%rbp)
    148b:	8b 45 fc             	mov    -0x4(%rbp),%eax
    148e:	3b 45 e4             	cmp    -0x1c(%rbp),%eax
    1491:	72 c6                	jb     1459 <find_min+0x25>
    1493:	8b 45 f8             	mov    -0x8(%rbp),%eax
    1496:	5d                   	pop    %rbp
    1497:	c3                   	ret

0000000000001498 <find_mean>:
    1498:	f3 0f 1e fa          	endbr64
    149c:	55                   	push   %rbp
    149d:	48 89 e5             	mov    %rsp,%rbp
    14a0:	48 89 7d e8          	mov    %rdi,-0x18(%rbp)
    14a4:	89 75 e4             	mov    %esi,-0x1c(%rbp)
    14a7:	c7 45 f8 00 00 00 00 	movl   $0x0,-0x8(%rbp)
    14ae:	c7 45 fc 00 00 00 00 	movl   $0x0,-0x4(%rbp)
    14b5:	eb 1a                	jmp    14d1 <find_mean+0x39>
    14b7:	8b 45 fc             	mov    -0x4(%rbp),%eax
    14ba:	48 63 d0             	movslq %eax,%rdx
    14bd:	48 8b 45 e8          	mov    -0x18(%rbp),%rax
    14c1:	48 01 d0             	add    %rdx,%rax
    14c4:	0f b6 00             	movzbl (%rax),%eax
    14c7:	0f b6 c0             	movzbl %al,%eax
    14ca:	01 45 f8             	add    %eax,-0x8(%rbp)
    14cd:	83 45 fc 01          	addl   $0x1,-0x4(%rbp)
    14d1:	8b 45 fc             	mov    -0x4(%rbp),%eax
    14d4:	3b 45 e4             	cmp    -0x1c(%rbp),%eax
    14d7:	72 de                	jb     14b7 <find_mean+0x1f>
    14d9:	8b 45 f8             	mov    -0x8(%rbp),%eax
    14dc:	ba 00 00 00 00       	mov    $0x0,%edx
    14e1:	f7 75 e4             	divl   -0x1c(%rbp)
    14e4:	5d                   	pop    %rbp
    14e5:	c3                   	ret

00000000000014e6 <find_median>:
    14e6:	f3 0f 1e fa          	endbr64
    14ea:	55                   	push   %rbp
    14eb:	48 89 e5             	mov    %rsp,%rbp
    14ee:	48 83 ec 10          	sub    $0x10,%rsp
    14f2:	48 89 7d f8          	mov    %rdi,-0x8(%rbp)
    14f6:	89 75 f4             	mov    %esi,-0xc(%rbp)
    14f9:	8b 45 f4             	mov    -0xc(%rbp),%eax
    14fc:	83 e8 01             	sub    $0x1,%eax
    14ff:	89 c2                	mov    %eax,%edx
    1501:	48 8b 45 f8          	mov    -0x8(%rbp),%rax
    1505:	be 00 00 00 00       	mov    $0x0,%esi
    150a:	48 89 c7             	mov    %rax,%rdi
    150d:	e8 40 01 00 00       	call   1652 <quick_sort>
    1512:	8b 45 f4             	mov    -0xc(%rbp),%eax
    1515:	83 e0 01             	and    $0x1,%eax
    1518:	85 c0                	test   %eax,%eax
    151a:	75 38                	jne    1554 <find_median+0x6e>
    151c:	8b 45 f4             	mov    -0xc(%rbp),%eax
    151f:	d1 e8                	shr    $1,%eax
    1521:	89 c2                	mov    %eax,%edx
    1523:	48 8b 45 f8          	mov    -0x8(%rbp),%rax
    1527:	48 01 d0             	add    %rdx,%rax
    152a:	0f b6 00             	movzbl (%rax),%eax
    152d:	0f b6 d0             	movzbl %al,%edx
    1530:	8b 45 f4             	mov    -0xc(%rbp),%eax
    1533:	d1 e8                	shr    $1,%eax
    1535:	83 e8 01             	sub    $0x1,%eax
    1538:	89 c1                	mov    %eax,%ecx
    153a:	48 8b 45 f8          	mov    -0x8(%rbp),%rax
    153e:	48 01 c8             	add    %rcx,%rax
    1541:	0f b6 00             	movzbl (%rax),%eax
    1544:	0f b6 c0             	movzbl %al,%eax
    1547:	01 d0                	add    %edx,%eax
    1549:	89 c2                	mov    %eax,%edx
    154b:	c1 ea 1f             	shr    $0x1f,%edx
    154e:	01 d0                	add    %edx,%eax
    1550:	d1 f8                	sar    $1,%eax
    1552:	eb 14                	jmp    1568 <find_median+0x82>
    1554:	8b 45 f4             	mov    -0xc(%rbp),%eax
    1557:	d1 e8                	shr    $1,%eax
    1559:	89 c2                	mov    %eax,%edx
    155b:	48 8b 45 f8          	mov    -0x8(%rbp),%rax
    155f:	48 01 d0             	add    %rdx,%rax
    1562:	0f b6 00             	movzbl (%rax),%eax
    1565:	0f b6 c0             	movzbl %al,%eax
    1568:	c9                   	leave
    1569:	c3                   	ret

000000000000156a <swap>:
    156a:	f3 0f 1e fa          	endbr64
    156e:	55                   	push   %rbp
    156f:	48 89 e5             	mov    %rsp,%rbp
    1572:	48 89 7d e8          	mov    %rdi,-0x18(%rbp)
    1576:	48 89 75 e0          	mov    %rsi,-0x20(%rbp)
    157a:	48 8b 45 e8          	mov    -0x18(%rbp),%rax
    157e:	0f b6 00             	movzbl (%rax),%eax
    1581:	88 45 ff             	mov    %al,-0x1(%rbp)
    1584:	48 8b 45 e0          	mov    -0x20(%rbp),%rax
    1588:	0f b6 10             	movzbl (%rax),%edx
    158b:	48 8b 45 e8          	mov    -0x18(%rbp),%rax
    158f:	88 10                	mov    %dl,(%rax)
    1591:	48 8b 45 e0          	mov    -0x20(%rbp),%rax
    1595:	0f b6 55 ff          	movzbl -0x1(%rbp),%edx
    1599:	88 10                	mov    %dl,(%rax)
    159b:	90                   	nop
    159c:	5d                   	pop    %rbp
    159d:	c3                   	ret

000000000000159e <partition>:
    159e:	f3 0f 1e fa          	endbr64
    15a2:	55                   	push   %rbp
    15a3:	48 89 e5             	mov    %rsp,%rbp
    15a6:	48 83 ec 20          	sub    $0x20,%rsp
    15aa:	48 89 7d e8          	mov    %rdi,-0x18(%rbp)
    15ae:	89 75 e4             	mov    %esi,-0x1c(%rbp)
    15b1:	89 55 e0             	mov    %edx,-0x20(%rbp)
    15b4:	8b 45 e0             	mov    -0x20(%rbp),%eax
    15b7:	48 63 d0             	movslq %eax,%rdx
    15ba:	48 8b 45 e8          	mov    -0x18(%rbp),%rax
    15be:	48 01 d0             	add    %rdx,%rax
    15c1:	0f b6 00             	movzbl (%rax),%eax
    15c4:	88 45 f7             	mov    %al,-0x9(%rbp)
    15c7:	8b 45 e4             	mov    -0x1c(%rbp),%eax
    15ca:	83 e8 01             	sub    $0x1,%eax
    15cd:	89 45 f8             	mov    %eax,-0x8(%rbp)
    15d0:	8b 45 e4             	mov    -0x1c(%rbp),%eax
    15d3:	89 45 fc             	mov    %eax,-0x4(%rbp)
    15d6:	eb 42                	jmp    161a <partition+0x7c>
    15d8:	8b 45 fc             	mov    -0x4(%rbp),%eax
    15db:	48 63 d0             	movslq %eax,%rdx
    15de:	48 8b 45 e8          	mov    -0x18(%rbp),%rax
    15e2:	48 01 d0             	add    %rdx,%rax
    15e5:	0f b6 00             	movzbl (%rax),%eax
    15e8:	38 45 f7             	cmp    %al,-0x9(%rbp)
    15eb:	72 29                	jb     1616 <partition+0x78>
    15ed:	83 45 f8 01          	addl   $0x1,-0x8(%rbp)
    15f1:	8b 45 fc             	mov    -0x4(%rbp),%eax
    15f4:	48 63 d0             	movslq %eax,%rdx
    15f7:	48 8b 45 e8          	mov    -0x18(%rbp),%rax
    15fb:	48 01 c2             	add    %rax,%rdx
    15fe:	8b 45 f8             	mov    -0x8(%rbp),%eax
    1601:	48 63 c8             	movslq %eax,%rcx
    1604:	48 8b 45 e8          	mov    -0x18(%rbp),%rax
    1608:	48 01 c8             	add    %rcx,%rax
    160b:	48 89 d6             	mov    %rdx,%rsi
    160e:	48 89 c7             	mov    %rax,%rdi
    1611:	e8 54 ff ff ff       	call   156a <swap>
    1616:	83 45 fc 01          	addl   $0x1,-0x4(%rbp)
    161a:	8b 45 fc             	mov    -0x4(%rbp),%eax
    161d:	3b 45 e0             	cmp    -0x20(%rbp),%eax
    1620:	7c b6                	jl     15d8 <partition+0x3a>
    1622:	8b 45 e0             	mov    -0x20(%rbp),%eax
    1625:	48 63 d0             	movslq %eax,%rdx
    1628:	48 8b 45 e8          	mov    -0x18(%rbp),%rax
    162c:	48 01 c2             	add    %rax,%rdx
    162f:	8b 45 f8             	mov    -0x8(%rbp),%eax
    1632:	48 98                	cltq
    1634:	48 8d 48 01          	lea    0x1(%rax),%rcx
    1638:	48 8b 45 e8          	mov    -0x18(%rbp),%rax
    163c:	48 01 c8             	add    %rcx,%rax
    163f:	48 89 d6             	mov    %rdx,%rsi
    1642:	48 89 c7             	mov    %rax,%rdi
    1645:	e8 20 ff ff ff       	call   156a <swap>
    164a:	8b 45 f8             	mov    -0x8(%rbp),%eax
    164d:	83 c0 01             	add    $0x1,%eax
    1650:	c9                   	leave
    1651:	c3                   	ret

0000000000001652 <quick_sort>:
    1652:	f3 0f 1e fa          	endbr64
    1656:	55                   	push   %rbp
    1657:	48 89 e5             	mov    %rsp,%rbp
    165a:	48 83 ec 20          	sub    $0x20,%rsp
    165e:	48 89 7d e8          	mov    %rdi,-0x18(%rbp)
    1662:	89 75 e4             	mov    %esi,-0x1c(%rbp)
    1665:	89 55 e0             	mov    %edx,-0x20(%rbp)
    1668:	8b 45 e4             	mov    -0x1c(%rbp),%eax
    166b:	3b 45 e0             	cmp    -0x20(%rbp),%eax
    166e:	7d 45                	jge    16b5 <quick_sort+0x63>
    1670:	8b 55 e0             	mov    -0x20(%rbp),%edx
    1673:	8b 4d e4             	mov    -0x1c(%rbp),%ecx
    1676:	48 8b 45 e8          	mov    -0x18(%rbp),%rax
    167a:	89 ce                	mov    %ecx,%esi
    167c:	48 89 c7             	mov    %rax,%rdi
    167f:	e8 1a ff ff ff       	call   159e <partition>
    1684:	89 45 fc             	mov    %eax,-0x4(%rbp)
    1687:	8b 45 fc             	mov    -0x4(%rbp),%eax
    168a:	8d 50 ff             	lea    -0x1(%rax),%edx
    168d:	8b 4d e4             	mov    -0x1c(%rbp),%ecx
    1690:	48 8b 45 e8          	mov    -0x18(%rbp),%rax
    1694:	89 ce                	mov    %ecx,%esi
    1696:	48 89 c7             	mov    %rax,%rdi
    1699:	e8 b4 ff ff ff       	call   1652 <quick_sort>
    169e:	8b 45 fc             	mov    -0x4(%rbp),%eax
    16a1:	8d 48 01             	lea    0x1(%rax),%ecx
    16a4:	8b 55 e0             	mov    -0x20(%rbp),%edx
    16a7:	48 8b 45 e8          	mov    -0x18(%rbp),%rax
    16ab:	89 ce                	mov    %ecx,%esi
    16ad:	48 89 c7             	mov    %rax,%rdi
    16b0:	e8 9d ff ff ff       	call   1652 <quick_sort>
    16b5:	90                   	nop
    16b6:	c9                   	leave
    16b7:	c3                   	ret

Disassembly of section .fini:

00000000000016b8 <_fini>:
    16b8:	f3 0f 1e fa          	endbr64
    16bc:	48 83 ec 08          	sub    $0x8,%rsp
    16c0:	48 83 c4 08          	add    $0x8,%rsp
    16c4:	c3                   	ret
